target datalayout = "e-m:e-p270:32:32-p271:32:32-p272:64:64-i64:64-i128:128-f80:128-n8:16:32:64-S128"
target triple = "x86_64-pc-linux-gnu"

; Function Attrs: nounwind uwtable
define i32 @EVP_PKEY_set1_DH(ptr noundef %0, ptr noundef %1) #0 {
  %3 = alloca ptr, align 8
  %4 = alloca ptr, align 8
  %5 = alloca i32, align 4
  %6 = alloca i32, align 4
  store ptr %0, ptr %3, align 8, !tbaa !3
  store ptr %1, ptr %4, align 8, !tbaa !106
  call void @llvm.lifetime.start.p0(i64 4, ptr %5) #8
  call void @llvm.lifetime.start.p0(i64 4, ptr %6) #8
  %7 = load ptr, ptr %4, align 8, !tbaa !106
  %8 = call i32 @ossl_dh_is_named_safe_prime_group(ptr noundef %7)
  %9 = icmp ne i32 %8, 0
  br i1 %9, label %10, label %11

10:                                               ; preds = %2
  store i32 28, ptr %6, align 4, !tbaa !8
  br label %16

11:                                               ; preds = %2
  %12 = load ptr, ptr %4, align 8, !tbaa !106
  %13 = call ptr @DH_get0_q(ptr noundef %12)
  %14 = icmp eq ptr %13, null
  %15 = select i1 %14, i32 28, i32 920
  store i32 %15, ptr %6, align 4, !tbaa !8
  br label %16

16:                                               ; preds = %11, %10
  %17 = load ptr, ptr %3, align 8, !tbaa !3
  %18 = load i32, ptr %6, align 4, !tbaa !8
  %19 = load ptr, ptr %4, align 8, !tbaa !106
  %20 = call i32 @EVP_PKEY_assign(ptr noundef %17, i32 noundef %18, ptr noundef %19)
  store i32 %20, ptr %5, align 4, !tbaa !8
  %21 = load i32, ptr %5, align 4, !tbaa !8
  %22 = icmp ne i32 %21, 0
  br i1 %22, label %23, label %26

23:                                               ; preds = %16
  %24 = load ptr, ptr %4, align 8, !tbaa !106
  %25 = call i32 @DH_up_ref(ptr noundef %24)
  br label %26

26:                                               ; preds = %23, %16
  %27 = load i32, ptr %5, align 4, !tbaa !8
  call void @llvm.lifetime.end.p0(i64 4, ptr %6) #8
  call void @llvm.lifetime.end.p0(i64 4, ptr %5) #8
  ret i32 %27
}