; Function Attrs: nounwind uwtable
define range(i32 0, 2) i32 @EVP_PKEY_set1_DH(ptr noundef %0, ptr noundef %1) local_unnamed_addr #0 {
  %3 = tail call i32 @ossl_dh_is_named_safe_prime_group(ptr noundef %1) #12
  %.not = icmp eq i32 %3, 0
  br i1 %.not, label %4, label %8

4:                                                ; preds = %2
  %5 = tail call ptr @DH_get0_q(ptr noundef %1) #12
  %6 = icmp eq ptr %5, null
  %7 = select i1 %6, i32 28, i32 920
  br label %8

8:                                                ; preds = %2, %4
  %.0 = phi i32 [ %7, %4 ], [ 28, %2 ]
  %9 = tail call i32 @EVP_PKEY_assign(ptr noundef %0, i32 noundef %.0, ptr noundef %1)
  %.not7 = icmp eq i32 %9, 0
  br i1 %.not7, label %12, label %10

10:                                               ; preds = %8
  %11 = tail call i32 @DH_up_ref(ptr noundef %1) #12
  br label %12

12:                                               ; preds = %10, %8
  ret i32 %9
}